target datalayout = "e-m:e-p270:32:32-p271:32:32-p272:64:64-i64:64-i128:128-f80:128-n8:16:32:64-S128"
target triple = "x86_64-pc-linux-gnu"

%struct.FT_StreamRec_ = type { ptr, i64, i64, %union.FT_StreamDesc_, %union.FT_StreamDesc_, ptr, ptr, ptr, ptr, ptr }
%union.FT_StreamDesc_ = type { i64 }

; Function Attrs: nounwind uwtable
define hidden i32 @FT_Stream_Seek(ptr noundef %0, i64 noundef %1) #0 {
  %3 = alloca ptr, align 8
  %4 = alloca i64, align 8
  %5 = alloca i32, align 4
  store ptr %0, ptr %3, align 8, !tbaa !268
  store i64 %1, ptr %4, align 8, !tbaa !47
  call void @llvm.lifetime.start.p0(i64 4, ptr %5) #10
  store i32 0, ptr %5, align 4, !tbaa !8
  %6 = load ptr, ptr %3, align 8, !tbaa !268
  %7 = getelementptr inbounds nuw %struct.FT_StreamRec_, ptr %6, i32 0, i32 5
  %8 = load ptr, ptr %7, align 8, !tbaa !283
  %9 = icmp ne ptr %8, null
  br i1 %9, label %10, label %23

10:                                               ; preds = %2
  %11 = load ptr, ptr %3, align 8, !tbaa !268
  %12 = getelementptr inbounds nuw %struct.FT_StreamRec_, ptr %11, i32 0, i32 5
  %13 = load ptr, ptr %12, align 8, !tbaa !283
  %14 = load ptr, ptr %3, align 8, !tbaa !268
  %15 = load i64, ptr %4, align 8, !tbaa !47
  %16 = call i64 %13(ptr noundef %14, i64 noundef %15, ptr noundef null, i64 noundef 0)
  %17 = icmp ne i64 %16, 0
  br i1 %17, label %18, label %22

18:                                               ; preds = %10
  br label %19

19:                                               ; preds = %18
  br label %20

20:                                               ; preds = %19
  br label %21

21:                                               ; preds = %20
  store i32 85, ptr %5, align 4, !tbaa !8
  br label %22

22:                                               ; preds = %21, %10
  br label %34

23:                                               ; preds = %2
  %24 = load i64, ptr %4, align 8, !tbaa !47
  %25 = load ptr, ptr %3, align 8, !tbaa !268
  %26 = getelementptr inbounds nuw %struct.FT_StreamRec_, ptr %25, i32 0, i32 1
  %27 = load i64, ptr %26, align 8, !tbaa !280
  %28 = icmp ugt i64 %24, %27
  br i1 %28, label %29, label %33

29:                                               ; preds = %23
  br label %30

30:                                               ; preds = %29
  br label %31

31:                                               ; preds = %30
  br label %32

32:                                               ; preds = %31
  store i32 85, ptr %5, align 4, !tbaa !8
  br label %33

33:                                               ; preds = %32, %23
  br label %34

34:                                               ; preds = %33, %22
  %35 = load i32, ptr %5, align 4, !tbaa !8
  %36 = icmp ne i32 %35, 0
  br i1 %36, label %41, label %37

37:                                               ; preds = %34
  %38 = load i64, ptr %4, align 8, !tbaa !47
  %39 = load ptr, ptr %3, align 8, !tbaa !268
  %40 = getelementptr inbounds nuw %struct.FT_StreamRec_, ptr %39, i32 0, i32 2
  store i64 %38, ptr %40, align 8, !tbaa !281
  br label %41

41:                                               ; preds = %37, %34
  %42 = load i32, ptr %5, align 4, !tbaa !8
  call void @llvm.lifetime.end.p0(i64 4, ptr %5) #10
  ret i32 %42
}

; Function Attrs: nounwind uwtable
define hidden i32 @FT_Stream_Skip(ptr noundef %0, i64 noundef %1) #0 {
  %3 = alloca i32, align 4
  %4 = alloca ptr, align 8
  %5 = alloca i64, align 8
  store ptr %0, ptr %4, align 8, !tbaa !268
  store i64 %1, ptr %5, align 8, !tbaa !47
  %6 = load i64, ptr %5, align 8, !tbaa !47
  %7 = icmp slt i64 %6, 0
  br i1 %7, label %8, label %9

8:                                                ; preds = %2
  store i32 85, ptr %3, align 4
  br label %17

9:                                                ; preds = %2
  %10 = load ptr, ptr %4, align 8, !tbaa !268
  %11 = load ptr, ptr %4, align 8, !tbaa !268
  %12 = getelementptr inbounds nuw %struct.FT_StreamRec_, ptr %11, i32 0, i32 2
  %13 = load i64, ptr %12, align 8, !tbaa !281
  %14 = load i64, ptr %5, align 8, !tbaa !47
  %15 = add i64 %13, %14
  %16 = call i32 @FT_Stream_Seek(ptr noundef %10, i64 noundef %15)
  store i32 %16, ptr %3, align 4
  br label %17

17:                                               ; preds = %9, %8
  %18 = load i32, ptr %3, align 4
  ret i32 %18
}