; Function Attrs: nounwind uwtable
define hidden range(i32 0, 86) i32 @FT_Stream_Skip(ptr noundef %0, i64 noundef %1) local_unnamed_addr #0 {
  %3 = icmp slt i64 %1, 0
  br i1 %3, label %FT_Stream_Seek.exit, label %4

4:                                                ; preds = %2
  %5 = getelementptr inbounds nuw i8, ptr %0, i64 16
  %6 = load i64, ptr %5, align 8, !tbaa !255
  %7 = add i64 %6, %1
  %8 = getelementptr inbounds nuw i8, ptr %0, i64 40
  %9 = load ptr, ptr %8, align 8, !tbaa !302
  %.not.i = icmp eq ptr %9, null
  br i1 %.not.i, label %12, label %10

10:                                               ; preds = %4
  %11 = tail call i64 %9(ptr noundef nonnull %0, i64 noundef %7, ptr noundef null, i64 noundef 0) #34
  %.not10.i = icmp eq i64 %11, 0
  br i1 %.not10.i, label %15, label %FT_Stream_Seek.exit

12:                                               ; preds = %4
  %13 = getelementptr inbounds nuw i8, ptr %0, i64 8
  %14 = load i64, ptr %13, align 8, !tbaa !249
  %.not17.i = icmp ugt i64 %7, %14
  br i1 %.not17.i, label %FT_Stream_Seek.exit, label %15

15:                                               ; preds = %12, %10
  store i64 %7, ptr %5, align 8, !tbaa !255
  br label %FT_Stream_Seek.exit

FT_Stream_Seek.exit:                              ; preds = %15, %12, %10, %2
  %.0 = phi i32 [ 85, %2 ], [ 85, %10 ], [ 0, %15 ], [ 85, %12 ]
  ret i32 %.0
}